target datalayout = "e-m:e-p270:32:32-p271:32:32-p272:64:64-i64:64-i128:128-f80:128-n8:16:32:64-S128"
target triple = "x86_64-pc-linux-gnu"

%struct.Aig_Obj_t_ = type { %union.anon, ptr, ptr, i64, i32, i32, %union.anon.0 }
%union.anon = type { ptr }
%union.anon.0 = type { ptr }
%struct.Aig_Man_t_ = type { ptr, ptr, ptr, ptr, ptr, ptr, ptr, %struct.Aig_Obj_t_, i32, i32, i32, i32, i32, i32, [7 x i32], i32, ptr, i32, ptr, i32, ptr, i32, i32, i32, ptr, i32, i32, i32, i32, i32, ptr, ptr, i32, ptr, ptr, i32, ptr, ptr, i32, i32, i32, ptr, ptr, ptr, ptr, ptr, ptr, ptr, ptr, ptr, ptr, ptr, ptr, ptr, ptr, i32, ptr, ptr, ptr, ptr, i32, i64, i64, i64, ptr, ptr }
%struct.Hop_Man_t_ = type { ptr, ptr, ptr, ptr, %struct.Hop_Obj_t_, [6 x i32], i32, i32, ptr, i32, ptr, i32, i32, i32, ptr, ptr, ptr, i64, i64 }
%struct.Hop_Obj_t_ = type { %union.anon.1, %union.anon.2, ptr, ptr, i32, i32 }
%union.anon.1 = type { ptr }
%union.anon.2 = type { ptr }
%struct.Vec_Ptr_t_ = type { i32, i32, ptr }

; Function Attrs: nounwind uwtable
define internal i32 @Aig_IsComplement(ptr noundef %0) #0 {
  %2 = alloca ptr, align 8
  store ptr %0, ptr %2, align 8
  %3 = load ptr, ptr %2, align 8
  %4 = ptrtoint ptr %3 to i64
  %5 = and i64 %4, 1
  %6 = trunc i64 %5 to i32
  ret i32 %6
}

; Function Attrs: nounwind uwtable
define internal ptr @Aig_Regular(ptr noundef %0) #0 {
  %2 = alloca ptr, align 8
  store ptr %0, ptr %2, align 8
  %3 = load ptr, ptr %2, align 8
  %4 = ptrtoint ptr %3 to i64
  %5 = and i64 %4, -2
  %6 = inttoptr i64 %5 to ptr
  ret ptr %6
}

; Function Attrs: nounwind uwtable
define internal ptr @Vec_PtrEntry(ptr noundef %0, i32 noundef %1) #0 {
  %3 = alloca ptr, align 8
  %4 = alloca i32, align 4
  store ptr %0, ptr %3, align 8
  store i32 %1, ptr %4, align 4
  %5 = load ptr, ptr %3, align 8
  %6 = getelementptr inbounds %struct.Vec_Ptr_t_, ptr %5, i32 0, i32 2
  %7 = load ptr, ptr %6, align 8
  %8 = load i32, ptr %4, align 4
  %9 = sext i32 %8 to i64
  %10 = getelementptr inbounds ptr, ptr %7, i64 %9
  %11 = load ptr, ptr %10, align 8
  ret ptr %11
}

; Function Attrs: nounwind uwtable
define internal i32 @Vec_PtrSize(ptr noundef %0) #0 {
  %2 = alloca ptr, align 8
  store ptr %0, ptr %2, align 8
  %3 = load ptr, ptr %2, align 8
  %4 = getelementptr inbounds %struct.Vec_Ptr_t_, ptr %3, i32 0, i32 1
  %5 = load i32, ptr %4, align 4
  ret i32 %5
}

; Function Attrs: nounwind uwtable
define internal ptr @Hop_NotCond(ptr noundef %0, i32 noundef %1) #0 {
  %3 = alloca ptr, align 8
  %4 = alloca i32, align 4
  store ptr %0, ptr %3, align 8
  store i32 %1, ptr %4, align 4
  %5 = load ptr, ptr %3, align 8
  %6 = ptrtoint ptr %5 to i64
  %7 = load i32, ptr %4, align 4
  %8 = sext i32 %7 to i64
  %9 = xor i64 %6, %8
  %10 = inttoptr i64 %9 to ptr
  ret ptr %10
}

; Function Attrs: nounwind uwtable
define internal i32 @Aig_ObjFaninC0(ptr noundef %0) #0 {
  %2 = alloca ptr, align 8
  store ptr %0, ptr %2, align 8
  %3 = load ptr, ptr %2, align 8
  %4 = getelementptr inbounds %struct.Aig_Obj_t_, ptr %3, i32 0, i32 1
  %5 = load ptr, ptr %4, align 8
  %6 = call i32 @Aig_IsComplement(ptr noundef %5)
  ret i32 %6
}

; Function Attrs: nounwind uwtable
define internal ptr @Hop_ManConst1(ptr noundef %0) #0 {
  %2 = alloca ptr, align 8
  store ptr %0, ptr %2, align 8
  %3 = load ptr, ptr %2, align 8
  %4 = getelementptr inbounds %struct.Hop_Man_t_, ptr %3, i32 0, i32 3
  %5 = load ptr, ptr %4, align 8
  ret ptr %5
}

; Function Attrs: nounwind uwtable
define internal i32 @Aig_ObjIsConst1(ptr noundef %0) #0 {
  %2 = alloca ptr, align 8
  store ptr %0, ptr %2, align 8
  %3 = load ptr, ptr %2, align 8
  %4 = getelementptr inbounds %struct.Aig_Obj_t_, ptr %3, i32 0, i32 3
  %5 = load i64, ptr %4, align 8
  %6 = and i64 %5, 7
  %7 = trunc i64 %6 to i32
  %8 = icmp eq i32 %7, 1
  %9 = zext i1 %8 to i32
  ret i32 %9
}

; Function Attrs: nounwind uwtable
define internal ptr @Aig_ObjFanin0(ptr noundef %0) #0 {
  %2 = alloca ptr, align 8
  store ptr %0, ptr %2, align 8
  %3 = load ptr, ptr %2, align 8
  %4 = getelementptr inbounds %struct.Aig_Obj_t_, ptr %3, i32 0, i32 1
  %5 = load ptr, ptr %4, align 8
  %6 = call ptr @Aig_Regular(ptr noundef %5)
  ret ptr %6
}

; Function Attrs: nounwind uwtable
define internal ptr @Aig_ManCo(ptr noundef %0, i32 noundef %1) #0 {
  %3 = alloca ptr, align 8
  %4 = alloca i32, align 4
  store ptr %0, ptr %3, align 8
  store i32 %1, ptr %4, align 4
  %5 = load ptr, ptr %3, align 8
  %6 = getelementptr inbounds %struct.Aig_Man_t_, ptr %5, i32 0, i32 3
  %7 = load ptr, ptr %6, align 8
  %8 = load i32, ptr %4, align 4
  %9 = call ptr @Vec_PtrEntry(ptr noundef %7, i32 noundef %8)
  ret ptr %9
}

; Function Attrs: nounwind uwtable
define ptr @Abc_MfsConvertAigToHop(ptr noundef %0, ptr noundef %1) #0 {
  %3 = alloca ptr, align 8
  %4 = alloca ptr, align 8
  %5 = alloca ptr, align 8
  %6 = alloca ptr, align 8
  %7 = alloca ptr, align 8
  %8 = alloca i32, align 4
  store ptr %0, ptr %4, align 8
  store ptr %1, ptr %5, align 8
  %9 = load ptr, ptr %4, align 8
  %10 = call ptr @Aig_ManCo(ptr noundef %9, i32 noundef 0)
  store ptr %10, ptr %6, align 8
  %11 = load ptr, ptr %6, align 8
  %12 = call ptr @Aig_ObjFanin0(ptr noundef %11)
  %13 = call i32 @Aig_ObjIsConst1(ptr noundef %12)
  %14 = icmp ne i32 %13, 0
  br i1 %14, label %15, label %21

15:                                               ; preds = %2
  %16 = load ptr, ptr %5, align 8
  %17 = call ptr @Hop_ManConst1(ptr noundef %16)
  %18 = load ptr, ptr %6, align 8
  %19 = call i32 @Aig_ObjFaninC0(ptr noundef %18)
  %20 = call ptr @Hop_NotCond(ptr noundef %17, i32 noundef %19)
  store ptr %20, ptr %3, align 8
  br label %58

21:                                               ; preds = %2
  %22 = load ptr, ptr %4, align 8
  call void @Aig_ManCleanData(ptr noundef %22)
  store i32 0, ptr %8, align 4
  br label %23

23:                                               ; preds = %44, %21
  %24 = load i32, ptr %8, align 4
  %25 = load ptr, ptr %4, align 8
  %26 = getelementptr inbounds %struct.Aig_Man_t_, ptr %25, i32 0, i32 2
  %27 = load ptr, ptr %26, align 8
  %28 = call i32 @Vec_PtrSize(ptr noundef %27)
  %29 = icmp slt i32 %24, %28
  br i1 %29, label %30, label %36

30:                                               ; preds = %23
  %31 = load ptr, ptr %4, align 8
  %32 = getelementptr inbounds %struct.Aig_Man_t_, ptr %31, i32 0, i32 2
  %33 = load ptr, ptr %32, align 8
  %34 = load i32, ptr %8, align 4
  %35 = call ptr @Vec_PtrEntry(ptr noundef %33, i32 noundef %34)
  store ptr %35, ptr %7, align 8
  br label %36

36:                                               ; preds = %30, %23
  %37 = phi i1 [ false, %23 ], [ true, %30 ]
  br i1 %37, label %38, label %47

38:                                               ; preds = %36
  %39 = load ptr, ptr %5, align 8
  %40 = load i32, ptr %8, align 4
  %41 = call ptr @Hop_IthVar(ptr noundef %39, i32 noundef %40)
  %42 = load ptr, ptr %7, align 8
  %43 = getelementptr inbounds %struct.Aig_Obj_t_, ptr %42, i32 0, i32 6
  store ptr %41, ptr %43, align 8
  br label %44

44:                                               ; preds = %38
  %45 = load i32, ptr %8, align 4
  %46 = add nsw i32 %45, 1
  store i32 %46, ptr %8, align 4
  br label %23, !llvm.loop !4

47:                                               ; preds = %36
  %48 = load ptr, ptr %6, align 8
  %49 = call ptr @Aig_ObjFanin0(ptr noundef %48)
  %50 = load ptr, ptr %5, align 8
  call void @Abc_MfsConvertAigToHop_rec(ptr noundef %49, ptr noundef %50)
  %51 = load ptr, ptr %6, align 8
  %52 = call ptr @Aig_ObjFanin0(ptr noundef %51)
  %53 = getelementptr inbounds %struct.Aig_Obj_t_, ptr %52, i32 0, i32 6
  %54 = load ptr, ptr %53, align 8
  %55 = load ptr, ptr %6, align 8
  %56 = call i32 @Aig_ObjFaninC0(ptr noundef %55)
  %57 = call ptr @Hop_NotCond(ptr noundef %54, i32 noundef %56)
  store ptr %57, ptr %3, align 8
  br label %58

58:                                               ; preds = %47, %15
  %59 = load ptr, ptr %3, align 8
  ret ptr %59
}