; Function Attrs: nounwind uwtable
define ptr @Abc_MfsConvertAigToHop(ptr noundef %0, ptr noundef %1) local_unnamed_addr #0 {
  %3 = getelementptr i8, ptr %0, i64 24
  %.val23 = load ptr, ptr %3, align 8
  %4 = getelementptr i8, ptr %.val23, i64 8
  %.val23.val = load ptr, ptr %4, align 8
  %5 = load ptr, ptr %.val23.val, align 8
  %6 = getelementptr i8, ptr %5, i64 8
  %.val19 = load ptr, ptr %6, align 8
  %7 = ptrtoint ptr %.val19 to i64
  %8 = and i64 %7, -2
  %9 = inttoptr i64 %8 to ptr
  %10 = getelementptr i8, ptr %9, i64 24
  %.val24 = load i64, ptr %10, align 8
  %11 = and i64 %.val24, 7
  %.not = icmp eq i64 %11, 1
  br i1 %.not, label %12, label %14

12:                                               ; preds = %2
  %13 = getelementptr i8, ptr %1, i64 24
  br label %37

14:                                               ; preds = %2
  tail call void @Aig_ManCleanData(ptr noundef nonnull %0) #3
  %15 = getelementptr inbounds nuw i8, ptr %0, i64 16
  %16 = load ptr, ptr %15, align 8
  %17 = getelementptr i8, ptr %16, i64 4
  %.val2627 = load i32, ptr %17, align 4
  %18 = icmp sgt i32 %.val2627, 0
  br i1 %18, label %.lr.ph, label %.critedge

.lr.ph:                                           ; preds = %14, %.lr.ph
  %indvars.iv = phi i64 [ %indvars.iv.next, %.lr.ph ], [ 0, %14 ]
  %19 = phi ptr [ %26, %.lr.ph ], [ %16, %14 ]
  %20 = getelementptr i8, ptr %19, i64 8
  %.val22 = load ptr, ptr %20, align 8
  %21 = getelementptr inbounds nuw ptr, ptr %.val22, i64 %indvars.iv
  %22 = load ptr, ptr %21, align 8
  %23 = trunc nuw nsw i64 %indvars.iv to i32
  %24 = tail call ptr @Hop_IthVar(ptr noundef %1, i32 noundef %23) #3
  %25 = getelementptr inbounds nuw i8, ptr %22, i64 40
  store ptr %24, ptr %25, align 8
  %indvars.iv.next = add nuw nsw i64 %indvars.iv, 1
  %26 = load ptr, ptr %15, align 8
  %27 = getelementptr i8, ptr %26, i64 4
  %.val26 = load i32, ptr %27, align 4
  %28 = sext i32 %.val26 to i64
  %29 = icmp slt i64 %indvars.iv.next, %28
  br i1 %29, label %.lr.ph, label %.critedge, !llvm.loop !4

.critedge:                                        ; preds = %.lr.ph, %14
  %.val18 = load ptr, ptr %6, align 8
  %30 = ptrtoint ptr %.val18 to i64
  %31 = and i64 %30, -2
  %32 = inttoptr i64 %31 to ptr
  tail call void @Abc_MfsConvertAigToHop_rec(ptr noundef %32, ptr noundef %1)
  %.val = load ptr, ptr %6, align 8
  %33 = ptrtoint ptr %.val to i64
  %34 = and i64 %33, -2
  %35 = inttoptr i64 %34 to ptr
  %36 = getelementptr inbounds nuw i8, ptr %35, i64 40
  br label %37

37:                                               ; preds = %.critedge, %12
  %.sink32 = phi i64 [ %33, %.critedge ], [ %7, %12 ]
  %.sink31.in = phi ptr [ %36, %.critedge ], [ %13, %12 ]
  %.sink31 = load ptr, ptr %.sink31.in, align 8
  %38 = and i64 %.sink32, 1
  %39 = ptrtoint ptr %.sink31 to i64
  %40 = xor i64 %38, %39
  %.017 = inttoptr i64 %40 to ptr
  ret ptr %.017
}